target datalayout = "e-m:e-p270:32:32-p271:32:32-p272:64:64-i64:64-i128:128-f80:128-n8:16:32:64-S128"
target triple = "x86_64-pc-linux-gnu"

%struct._generic_N_Vector = type { ptr, ptr, ptr }
%struct._SUNQRData = type { ptr, ptr, ptr }

; Function Attrs: nounwind uwtable
define i32 @SUNQRAdd_MGS(ptr noundef %0, ptr noundef %1, ptr noundef %2, i32 noundef %3, i32 noundef %4, ptr noundef %5) #0 {
  %7 = alloca ptr, align 8
  %8 = alloca ptr, align 8
  %9 = alloca ptr, align 8
  %10 = alloca i32, align 4
  %11 = alloca i32, align 4
  %12 = alloca ptr, align 8
  %13 = alloca ptr, align 8
  %14 = alloca i64, align 8
  %15 = alloca ptr, align 8
  store ptr %0, ptr %7, align 8, !tbaa !3
  store ptr %1, ptr %8, align 8, !tbaa !12
  store ptr %2, ptr %9, align 8, !tbaa !14
  store i32 %3, ptr %10, align 4, !tbaa !10
  store i32 %4, ptr %11, align 4, !tbaa !10
  store ptr %5, ptr %12, align 8, !tbaa !23
  call void @llvm.lifetime.start.p0(i64 8, ptr %13) #5
  %16 = load ptr, ptr %7, align 8, !tbaa !3
  %17 = getelementptr inbounds ptr, ptr %16, i64 0
  %18 = load ptr, ptr %17, align 8, !tbaa !14
  %19 = getelementptr inbounds nuw %struct._generic_N_Vector, ptr %18, i32 0, i32 2
  %20 = load ptr, ptr %19, align 8, !tbaa !16
  store ptr %20, ptr %13, align 8, !tbaa !20
  call void @llvm.lifetime.start.p0(i64 8, ptr %14) #5
  call void @llvm.lifetime.start.p0(i64 8, ptr %15) #5
  %21 = load ptr, ptr %12, align 8, !tbaa !23
  store ptr %21, ptr %15, align 8, !tbaa !24
  %22 = load ptr, ptr %9, align 8, !tbaa !14
  %23 = load ptr, ptr %15, align 8, !tbaa !24
  %24 = getelementptr inbounds nuw %struct._SUNQRData, ptr %23, i32 0, i32 0
  %25 = load ptr, ptr %24, align 8, !tbaa !26
  call void @N_VScale(double noundef 1.000000e+00, ptr noundef %22, ptr noundef %25)
  store i64 0, ptr %14, align 8, !tbaa !28
  br label %26

26:                                               ; preds = %68, %6
  %27 = load i64, ptr %14, align 8, !tbaa !28
  %28 = load i32, ptr %10, align 4, !tbaa !10
  %29 = sext i32 %28 to i64
  %30 = icmp slt i64 %27, %29
  br i1 %30, label %31, label %71

31:                                               ; preds = %26
  %32 = load ptr, ptr %7, align 8, !tbaa !3
  %33 = load i64, ptr %14, align 8, !tbaa !28
  %34 = getelementptr inbounds ptr, ptr %32, i64 %33
  %35 = load ptr, ptr %34, align 8, !tbaa !14
  %36 = load ptr, ptr %15, align 8, !tbaa !24
  %37 = getelementptr inbounds nuw %struct._SUNQRData, ptr %36, i32 0, i32 0
  %38 = load ptr, ptr %37, align 8, !tbaa !26
  %39 = call double @N_VDotProd(ptr noundef %35, ptr noundef %38)
  %40 = load ptr, ptr %8, align 8, !tbaa !12
  %41 = load i32, ptr %10, align 4, !tbaa !10
  %42 = load i32, ptr %11, align 4, !tbaa !10
  %43 = mul nsw i32 %41, %42
  %44 = sext i32 %43 to i64
  %45 = load i64, ptr %14, align 8, !tbaa !28
  %46 = add nsw i64 %44, %45
  %47 = getelementptr inbounds double, ptr %40, i64 %46
  store double %39, ptr %47, align 8, !tbaa !21
  %48 = load ptr, ptr %15, align 8, !tbaa !24
  %49 = getelementptr inbounds nuw %struct._SUNQRData, ptr %48, i32 0, i32 0
  %50 = load ptr, ptr %49, align 8, !tbaa !26
  %51 = load ptr, ptr %8, align 8, !tbaa !12
  %52 = load i32, ptr %10, align 4, !tbaa !10
  %53 = load i32, ptr %11, align 4, !tbaa !10
  %54 = mul nsw i32 %52, %53
  %55 = sext i32 %54 to i64
  %56 = load i64, ptr %14, align 8, !tbaa !28
  %57 = add nsw i64 %55, %56
  %58 = getelementptr inbounds double, ptr %51, i64 %57
  %59 = load double, ptr %58, align 8, !tbaa !21
  %60 = fneg double %59
  %61 = load ptr, ptr %7, align 8, !tbaa !3
  %62 = load i64, ptr %14, align 8, !tbaa !28
  %63 = getelementptr inbounds ptr, ptr %61, i64 %62
  %64 = load ptr, ptr %63, align 8, !tbaa !14
  %65 = load ptr, ptr %15, align 8, !tbaa !24
  %66 = getelementptr inbounds nuw %struct._SUNQRData, ptr %65, i32 0, i32 0
  %67 = load ptr, ptr %66, align 8, !tbaa !26
  call void @N_VLinearSum(double noundef 1.000000e+00, ptr noundef %50, double noundef %60, ptr noundef %64, ptr noundef %67)
  br label %68

68:                                               ; preds = %31
  %69 = load i64, ptr %14, align 8, !tbaa !28
  %70 = add nsw i64 %69, 1
  store i64 %70, ptr %14, align 8, !tbaa !28
  br label %26

71:                                               ; preds = %26
  %72 = load ptr, ptr %15, align 8, !tbaa !24
  %73 = getelementptr inbounds nuw %struct._SUNQRData, ptr %72, i32 0, i32 0
  %74 = load ptr, ptr %73, align 8, !tbaa !26
  %75 = load ptr, ptr %15, align 8, !tbaa !24
  %76 = getelementptr inbounds nuw %struct._SUNQRData, ptr %75, i32 0, i32 0
  %77 = load ptr, ptr %76, align 8, !tbaa !26
  %78 = call double @N_VDotProd(ptr noundef %74, ptr noundef %77)
  %79 = load ptr, ptr %8, align 8, !tbaa !12
  %80 = load i32, ptr %10, align 4, !tbaa !10
  %81 = load i32, ptr %11, align 4, !tbaa !10
  %82 = mul nsw i32 %80, %81
  %83 = load i32, ptr %10, align 4, !tbaa !10
  %84 = add nsw i32 %82, %83
  %85 = sext i32 %84 to i64
  %86 = getelementptr inbounds double, ptr %79, i64 %85
  store double %78, ptr %86, align 8, !tbaa !21
  %87 = load ptr, ptr %8, align 8, !tbaa !12
  %88 = load i32, ptr %10, align 4, !tbaa !10
  %89 = load i32, ptr %11, align 4, !tbaa !10
  %90 = mul nsw i32 %88, %89
  %91 = load i32, ptr %10, align 4, !tbaa !10
  %92 = add nsw i32 %90, %91
  %93 = sext i32 %92 to i64
  %94 = getelementptr inbounds double, ptr %87, i64 %93
  %95 = load double, ptr %94, align 8, !tbaa !21
  %96 = fcmp ole double %95, 0.000000e+00
  br i1 %96, label %97, label %98

97:                                               ; preds = %71
  br label %109

98:                                               ; preds = %71
  %99 = load ptr, ptr %8, align 8, !tbaa !12
  %100 = load i32, ptr %10, align 4, !tbaa !10
  %101 = load i32, ptr %11, align 4, !tbaa !10
  %102 = mul nsw i32 %100, %101
  %103 = load i32, ptr %10, align 4, !tbaa !10
  %104 = add nsw i32 %102, %103
  %105 = sext i32 %104 to i64
  %106 = getelementptr inbounds double, ptr %99, i64 %105
  %107 = load double, ptr %106, align 8, !tbaa !21
  %108 = call double @sqrt(double noundef %107) #5, !tbaa !10
  br label %109

109:                                              ; preds = %98, %97
  %110 = phi double [ 0.000000e+00, %97 ], [ %108, %98 ]
  %111 = load ptr, ptr %8, align 8, !tbaa !12
  %112 = load i32, ptr %10, align 4, !tbaa !10
  %113 = load i32, ptr %11, align 4, !tbaa !10
  %114 = mul nsw i32 %112, %113
  %115 = load i32, ptr %10, align 4, !tbaa !10
  %116 = add nsw i32 %114, %115
  %117 = sext i32 %116 to i64
  %118 = getelementptr inbounds double, ptr %111, i64 %117
  store double %110, ptr %118, align 8, !tbaa !21
  %119 = load ptr, ptr %8, align 8, !tbaa !12
  %120 = load i32, ptr %10, align 4, !tbaa !10
  %121 = load i32, ptr %11, align 4, !tbaa !10
  %122 = mul nsw i32 %120, %121
  %123 = load i32, ptr %10, align 4, !tbaa !10
  %124 = add nsw i32 %122, %123
  %125 = sext i32 %124 to i64
  %126 = getelementptr inbounds double, ptr %119, i64 %125
  %127 = load double, ptr %126, align 8, !tbaa !21
  %128 = fdiv double 1.000000e+00, %127
  %129 = load ptr, ptr %15, align 8, !tbaa !24
  %130 = getelementptr inbounds nuw %struct._SUNQRData, ptr %129, i32 0, i32 0
  %131 = load ptr, ptr %130, align 8, !tbaa !26
  %132 = load ptr, ptr %7, align 8, !tbaa !3
  %133 = load i32, ptr %10, align 4, !tbaa !10
  %134 = sext i32 %133 to i64
  %135 = getelementptr inbounds ptr, ptr %132, i64 %134
  %136 = load ptr, ptr %135, align 8, !tbaa !14
  call void @N_VScale(double noundef %128, ptr noundef %131, ptr noundef %136)
  call void @llvm.lifetime.end.p0(i64 8, ptr %15) #5
  call void @llvm.lifetime.end.p0(i64 8, ptr %14) #5
  call void @llvm.lifetime.end.p0(i64 8, ptr %13) #5
  ret i32 0
}