; Function Attrs: nounwind uwtable
define noundef i32 @SUNQRAdd_MGS(ptr noundef readonly captures(none) %0, ptr noundef writeonly captures(none) %1, ptr noundef %2, i32 noundef %3, i32 noundef %4, ptr noundef readonly captures(none) %5) local_unnamed_addr #0 {
  %7 = load ptr, ptr %5, align 8, !tbaa !14
  tail call void @N_VScale(double noundef 1.000000e+00, ptr noundef %2, ptr noundef %7) #7
  %8 = sext i32 %3 to i64
  %9 = icmp sgt i32 %3, 0
  br i1 %9, label %.lr.ph, label %._crit_edge

.lr.ph:                                           ; preds = %6
  %10 = mul nsw i32 %4, %3
  %11 = sext i32 %10 to i64
  %invariant.gep = getelementptr double, ptr %1, i64 %11
  br label %12

12:                                               ; preds = %.lr.ph, %12
  %.048 = phi i64 [ 0, %.lr.ph ], [ %20, %12 ]
  %13 = getelementptr inbounds nuw ptr, ptr %0, i64 %.048
  %14 = load ptr, ptr %13, align 8, !tbaa !3
  %15 = load ptr, ptr %5, align 8, !tbaa !14
  %16 = tail call double @N_VDotProd(ptr noundef %14, ptr noundef %15) #7
  %gep = getelementptr double, ptr %invariant.gep, i64 %.048
  store double %16, ptr %gep, align 8, !tbaa !12
  %17 = load ptr, ptr %5, align 8, !tbaa !14
  %18 = fneg double %16
  %19 = load ptr, ptr %13, align 8, !tbaa !3
  tail call void @N_VLinearSum(double noundef 1.000000e+00, ptr noundef %17, double noundef %18, ptr noundef %19, ptr noundef %17) #7
  %20 = add nuw nsw i64 %.048, 1
  %exitcond.not = icmp eq i64 %20, %8
  br i1 %exitcond.not, label %._crit_edge, label %12

._crit_edge:                                      ; preds = %12, %6
  %21 = load ptr, ptr %5, align 8, !tbaa !14
  %22 = tail call double @N_VDotProd(ptr noundef %21, ptr noundef %21) #7
  %23 = fcmp ugt double %22, 0.000000e+00
  br i1 %23, label %24, label %26

24:                                               ; preds = %._crit_edge
  %25 = tail call double @sqrt(double noundef %22) #7, !tbaa !8
  br label %26

26:                                               ; preds = %._crit_edge, %24
  %27 = phi double [ %25, %24 ], [ 0.000000e+00, %._crit_edge ]
  %28 = add i32 %4, 1
  %29 = mul i32 %28, %3
  %30 = sext i32 %29 to i64
  %31 = getelementptr inbounds double, ptr %1, i64 %30
  store double %27, ptr %31, align 8, !tbaa !12
  %32 = fdiv double 1.000000e+00, %27
  %33 = load ptr, ptr %5, align 8, !tbaa !14
  %34 = getelementptr inbounds ptr, ptr %0, i64 %8
  %35 = load ptr, ptr %34, align 8, !tbaa !3
  tail call void @N_VScale(double noundef %32, ptr noundef %33, ptr noundef %35) #7
  ret i32 0
}